TN:
SF:/home/vboxuser/Рабочий стол/lr3/n3/C++/containers/AVL.h
FN:105,110,_ZN3AVL12minValueNodeEP7NodeAVL
FN:114,179,_ZN3AVL10deleteNodeEP7NodeAVLi
FN:15,18,_ZN3AVL6heightEP7NodeAVL
FN:183,190,_ZN3AVL6searchEP7NodeAVLi
FN:194,200,_ZN3AVL8preOrderEP7NodeAVL
FN:203,203,_ZN3AVLC2Ev
FN:206,206,_ZNK3AVL7getRootEv
FN:218,220,_ZN3AVL6insertEi
FN:22,25,_ZN3AVL13balanceFactorEP7NodeAVL
FN:224,226,_ZN3AVL6removeEi
FN:230,232,_ZN3AVL6searchEi
FN:235,238,_ZN3AVL7displayEv
FN:29,41,_ZN3AVL11rightRotateEP7NodeAVL
FN:45,57,_ZN3AVL10leftRotateEP7NodeAVL
FN:61,101,_ZN3AVL6insertEP7NodeAVLi
FNDA:1,_ZN3AVL12minValueNodeEP7NodeAVL
FNDA:7,_ZN3AVL10deleteNodeEP7NodeAVLi
FNDA:204,_ZN3AVL6heightEP7NodeAVL
FNDA:13,_ZN3AVL6searchEP7NodeAVLi
FNDA:8,_ZN3AVL8preOrderEP7NodeAVL
FNDA:14,_ZN3AVLC2Ev
FNDA:24,_ZNK3AVL7getRootEv
FNDA:39,_ZN3AVL6insertEi
FNDA:43,_ZN3AVL13balanceFactorEP7NodeAVL
FNDA:3,_ZN3AVL6removeEi
FNDA:5,_ZN3AVL6searchEi
FNDA:2,_ZN3AVL7displayEv
FNDA:3,_ZN3AVL11rightRotateEP7NodeAVL
FNDA:5,_ZN3AVL10leftRotateEP7NodeAVL
FNDA:77,_ZN3AVL6insertEP7NodeAVLi
FNF:15
FNH:15
DA:15,204
DA:16,204
DA:17,126
DA:22,43
DA:23,43
DA:24,43
DA:29,3
DA:30,3
DA:31,3
DA:33,3
DA:34,3
DA:37,3
DA:38,3
DA:40,3
DA:45,5
DA:46,5
DA:47,5
DA:49,5
DA:50,5
DA:53,5
DA:54,5
DA:56,5
DA:61,77
DA:63,77
DA:66,38
DA:67,13
DA:69,25
DA:70,25
DA:73,0
DA:75,38
DA:78,38
DA:81,38
DA:82,1
DA:85,37
DA:86,3
DA:89,34
DA:90,1
DA:91,1
DA:95,33
DA:96,1
DA:97,1
DA:100,32
DA:105,1
DA:106,1
DA:107,1
DA:108,0
DA:109,1
DA:114,7
DA:115,7
DA:118,7
DA:119,1
DA:121,6
DA:122,2
DA:126,4
DA:128,3
DA:131,3
DA:132,2
DA:133,2
DA:137,1
DA:139,3
DA:140,3
DA:143,1
DA:144,1
DA:145,1
DA:150,7
DA:153,5
DA:156,5
DA:159,5
DA:160,0
DA:163,5
DA:164,0
DA:165,0
DA:169,5
DA:170,0
DA:173,5
DA:174,0
DA:175,0
DA:178,5
DA:183,13
DA:184,13
DA:186,8
DA:187,3
DA:189,5
DA:194,8
DA:195,8
DA:196,3
DA:197,3
DA:198,3
DA:200,8
DA:203,14
DA:206,24
DA:218,39
DA:219,39
DA:220,39
DA:224,3
DA:225,3
DA:226,3
DA:230,5
DA:231,5
DA:235,2
DA:236,2
DA:237,2
DA:238,2
LF:103
LH:95
end_of_record
TN:
SF:/home/vboxuser/Рабочий стол/lr3/n3/C++/containers/Array.h
FN:17,19,_ZN5ArrayC2Ev
FN:21,23,_ZN5ArrayD2Ev
FN:26,32,_ZN5Array7pushEndENSt7__cxx1112basic_stringIcSt11char_traitsIcESaIcEEE
FN:35,49,_ZN5Array4pushEiNSt7__cxx1112basic_stringIcSt11char_traitsIcESaIcEEE
FN:52,58,_ZN5Array3getB5cxx11Ei
FN:61,70,_ZN5Array3popEi
FN:74,80,_ZN5Array7replaceEiNSt7__cxx1112basic_stringIcSt11char_traitsIcESaIcEEE
FN:83,85,_ZN5Array6lengthEv
FN:88,97,_ZN5Array7displayEv
FNDA:14,_ZN5ArrayC2Ev
FNDA:14,_ZN5ArrayD2Ev
FNDA:25,_ZN5Array7pushEndENSt7__cxx1112basic_stringIcSt11char_traitsIcESaIcEEE
FNDA:2,_ZN5Array4pushEiNSt7__cxx1112basic_stringIcSt11char_traitsIcESaIcEEE
FNDA:9,_ZN5Array3getB5cxx11Ei
FNDA:2,_ZN5Array3popEi
FNDA:2,_ZN5Array7replaceEiNSt7__cxx1112basic_stringIcSt11char_traitsIcESaIcEEE
FNDA:3,_ZN5Array6lengthEv
FNDA:2,_ZN5Array7displayEv
FNF:9
FNH:9
DA:17,14
DA:18,154
DA:19,14
DA:21,14
DA:22,154
DA:23,14
DA:26,25
DA:27,25
DA:28,1
DA:29,1
DA:31,24
DA:35,2
DA:36,2
DA:37,1
DA:38,1
DA:40,1
DA:41,0
DA:42,0
DA:44,2
DA:45,1
DA:47,1
DA:48,1
DA:52,9
DA:53,9
DA:54,1
DA:55,2
DA:57,8
DA:61,2
DA:62,2
DA:63,1
DA:64,1
DA:66,2
DA:67,1
DA:69,1
DA:74,2
DA:75,2
DA:76,1
DA:77,1
DA:79,1
DA:83,3
DA:84,3
DA:88,2
DA:89,2
DA:90,1
DA:91,1
DA:93,4
DA:94,3
DA:96,1
LF:48
LH:46
end_of_record
TN:
SF:/home/vboxuser/Рабочий стол/lr3/n3/C++/containers/DubleList.h
FN:102,134,_ZN9DubleList8popValueENSt7__cxx1112basic_stringIcSt11char_traitsIcESaIcEEE
FN:137,144,_ZN9DubleList6searchENSt7__cxx1112basic_stringIcSt11char_traitsIcESaIcEEE
FN:147,159,_ZN9DubleList7displayEv
FN:16,16,_ZNK9DubleList7getHeadEv
FN:17,17,_ZNK9DubleList7getTailEv
FN:20,24,_ZN9DubleListC2Ev
FN:26,34,_ZN9DubleListD2Ev
FN:37,48,_ZN9DubleList8pushHeadENSt7__cxx1112basic_stringIcSt11char_traitsIcESaIcEEE
FN:51,62,_ZN9DubleList8pushTailENSt7__cxx1112basic_stringIcSt11char_traitsIcESaIcEEE
FN:65,80,_ZN9DubleList7popHeadEv
FN:83,99,_ZN9DubleList7popTailEv
FNDA:2,_ZN9DubleList8popValueENSt7__cxx1112basic_stringIcSt11char_traitsIcESaIcEEE
FNDA:2,_ZN9DubleList6searchENSt7__cxx1112basic_stringIcSt11char_traitsIcESaIcEEE
FNDA:3,_ZN9DubleList7displayEv
FNDA:10,_ZNK9DubleList7getHeadEv
FNDA:8,_ZNK9DubleList7getTailEv
FNDA:16,_ZN9DubleListC2Ev
FNDA:16,_ZN9DubleListD2Ev
FNDA:5,_ZN9DubleList8pushHeadENSt7__cxx1112basic_stringIcSt11char_traitsIcESaIcEEE
FNDA:20,_ZN9DubleList8pushTailENSt7__cxx1112basic_stringIcSt11char_traitsIcESaIcEEE
FNDA:2,_ZN9DubleList7popHeadEv
FNDA:2,_ZN9DubleList7popTailEv
FNF:11
FNH:11
DA:16,10
DA:17,8
DA:20,16
DA:21,16
DA:22,16
DA:23,16
DA:24,16
DA:26,16
DA:27,54
DA:28,22
DA:29,22
DA:30,22
DA:32,16
DA:33,16
DA:34,16
DA:37,5
DA:38,5
DA:39,5
DA:40,3
DA:43,2
DA:44,2
DA:45,2
DA:47,5
DA:48,5
DA:51,20
DA:52,20
DA:53,20
DA:54,8
DA:57,12
DA:58,12
DA:59,12
DA:61,20
DA:62,20
DA:65,2
DA:66,2
DA:67,1
DA:68,1
DA:70,1
DA:71,1
DA:72,1
DA:73,1
DA:76,0
DA:78,1
DA:79,1
DA:83,2
DA:84,2
DA:85,1
DA:86,1
DA:88,1
DA:89,0
DA:90,0
DA:93,1
DA:94,1
DA:95,1
DA:96,1
DA:98,1
DA:102,2
DA:103,2
DA:104,0
DA:105,0
DA:108,2
DA:110,5
DA:111,3
DA:114,2
DA:117,1
DA:118,1
DA:121,0
DA:124,1
DA:125,1
DA:128,0
DA:131,1
DA:132,1
DA:133,1
DA:137,2
DA:138,2
DA:139,5
DA:140,4
DA:141,3
DA:143,1
DA:147,3
DA:148,3
DA:149,2
DA:150,2
DA:153,1
DA:154,4
DA:155,3
DA:156,3
DA:158,1
LF:88
LH:81
end_of_record
TN:
SF:/home/vboxuser/Рабочий стол/lr3/n3/C++/containers/HashTable.h
FN:112,122,_ZN9HashTable7displayEv
FN:16,22,_ZN9HashTable13hash_functionERKNSt7__cxx1112basic_stringIcSt11char_traitsIcESaIcEEE
FN:26,26,_ZNK9HashTable8getTableEv
FN:27,27,_ZNK9HashTable7getSizeEv
FN:30,37,_ZN9HashTableC2Ei
FN:39,49,_ZN9HashTableD2Ev
FN:52,72,_ZN9HashTable6insertERKNSt7__cxx1112basic_stringIcSt11char_traitsIcESaIcEEES7_
FN:75,87,_ZN9HashTable3getERKNSt7__cxx1112basic_stringIcSt11char_traitsIcESaIcEEE
FN:90,109,_ZN9HashTable6removeERKNSt7__cxx1112basic_stringIcSt11char_traitsIcESaIcEEE
FNDA:2,_ZN9HashTable7displayEv
FNDA:36,_ZN9HashTable13hash_functionERKNSt7__cxx1112basic_stringIcSt11char_traitsIcESaIcEEE
FNDA:10,_ZNK9HashTable8getTableEv
FNDA:12,_ZNK9HashTable7getSizeEv
FNDA:17,_ZN9HashTableC2Ei
FNDA:17,_ZN9HashTableD2Ev
FNDA:18,_ZN9HashTable6insertERKNSt7__cxx1112basic_stringIcSt11char_traitsIcESaIcEEES7_
FNDA:14,_ZN9HashTable3getERKNSt7__cxx1112basic_stringIcSt11char_traitsIcESaIcEEE
FNDA:4,_ZN9HashTable6removeERKNSt7__cxx1112basic_stringIcSt11char_traitsIcESaIcEEE
FNF:9
FNH:9
DA:16,36
DA:17,36
DA:18,201
DA:19,165
DA:21,36
DA:26,10
DA:27,12
DA:30,17
DA:31,17
DA:32,17
DA:33,17
DA:34,155
DA:35,138
DA:37,17
DA:39,17
DA:40,155
DA:41,138
DA:42,152
DA:43,14
DA:44,14
DA:45,14
DA:48,17
DA:49,17
DA:52,18
DA:53,18
DA:54,18
DA:56,21
DA:57,4
DA:58,1
DA:59,1
DA:61,3
DA:64,17
DA:65,17
DA:66,17
DA:67,17
DA:75,14
DA:76,14
DA:77,14
DA:79,17
DA:80,12
DA:81,9
DA:83,3
DA:86,10
DA:90,4
DA:91,4
DA:92,4
DA:93,4
DA:95,5
DA:96,4
DA:97,3
DA:98,2
DA:100,1
DA:102,3
DA:103,3
DA:104,3
DA:106,1
DA:107,1
DA:112,2
DA:113,22
DA:114,20
DA:115,20
DA:116,22
DA:117,2
DA:118,2
DA:120,20
DA:122,2
LF:66
LH:66
end_of_record
TN:
SF:/home/vboxuser/Рабочий стол/lr3/n3/C++/containers/List.h
FN:115,148,_ZN4List8popValueENSt7__cxx1112basic_stringIcSt11char_traitsIcESaIcEEE
FN:152,160,_ZN4List6searchENSt7__cxx1112basic_stringIcSt11char_traitsIcESaIcEEE
FN:16,16,_ZNK4List7getHeadEv
FN:163,176,_ZN4List7displayEv
FN:17,17,_ZNK4List7getTailEv
FN:20,24,_ZN4ListC2Ev
FN:26,34,_ZN4ListD2Ev
FN:37,50,_ZN4List8pushHeadENSt7__cxx1112basic_stringIcSt11char_traitsIcESaIcEEE
FN:53,66,_ZN4List8pushTailENSt7__cxx1112basic_stringIcSt11char_traitsIcESaIcEEE
FN:69,83,_ZN4List7popHeadEv
FN:86,112,_ZN4List7popTailEv
FNDA:2,_ZN4List8popValueENSt7__cxx1112basic_stringIcSt11char_traitsIcESaIcEEE
FNDA:2,_ZN4List6searchENSt7__cxx1112basic_stringIcSt11char_traitsIcESaIcEEE
FNDA:9,_ZNK4List7getHeadEv
FNDA:2,_ZN4List7displayEv
FNDA:8,_ZNK4List7getTailEv
FNDA:15,_ZN4ListC2Ev
FNDA:15,_ZN4ListD2Ev
FNDA:22,_ZN4List8pushHeadENSt7__cxx1112basic_stringIcSt11char_traitsIcESaIcEEE
FNDA:2,_ZN4List8pushTailENSt7__cxx1112basic_stringIcSt11char_traitsIcESaIcEEE
FNDA:2,_ZN4List7popHeadEv
FNDA:2,_ZN4List7popTailEv
FNF:11
FNH:11
DA:16,9
DA:17,8
DA:20,15
DA:21,15
DA:22,15
DA:23,15
DA:24,15
DA:26,15
DA:27,51
DA:28,21
DA:29,21
DA:30,21
DA:32,15
DA:33,15
DA:34,15
DA:37,22
DA:38,22
DA:41,22
DA:42,9
DA:46,13
DA:47,13
DA:49,22
DA:50,22
DA:53,2
DA:54,2
DA:57,2
DA:58,1
DA:62,1
DA:63,1
DA:65,2
DA:66,2
DA:69,2
DA:71,2
DA:72,1
DA:73,1
DA:76,1
DA:77,1
DA:80,1
DA:81,1
DA:82,1
DA:86,2
DA:88,2
DA:89,1
DA:90,1
DA:94,1
DA:95,0
DA:96,0
DA:100,1
DA:101,2
DA:102,1
DA:106,1
DA:107,1
DA:108,1
DA:111,1
DA:115,2
DA:117,2
DA:118,0
DA:119,0
DA:123,2
DA:124,0
DA:125,0
DA:128,2
DA:130,3
DA:131,1
DA:135,2
DA:136,1
DA:137,1
DA:140,1
DA:141,1
DA:144,1
DA:145,1
DA:146,1
DA:147,1
DA:152,2
DA:153,2
DA:155,6
DA:156,5
DA:157,4
DA:159,1
DA:163,2
DA:164,2
DA:165,1
DA:166,1
DA:169,1
DA:171,4
DA:172,3
DA:173,3
DA:175,1
LF:88
LH:82
end_of_record
TN:
SF:/home/vboxuser/Рабочий стол/lr3/n3/C++/containers/Nodes.h
FN:10,10,_ZN5Node1C2ERKNSt7__cxx1112basic_stringIcSt11char_traitsIcESaIcEEE
FN:18,19,_ZN4NodeC2ERKNSt7__cxx1112basic_stringIcSt11char_traitsIcESaIcEEEPS_S8_
FN:27,27,_ZN6NodeHTC2ERKNSt7__cxx1112basic_stringIcSt11char_traitsIcESaIcEEES7_
FN:36,36,_ZN7NodeAVLC2Ei
FNDA:39,_ZN5Node1C2ERKNSt7__cxx1112basic_stringIcSt11char_traitsIcESaIcEEE
FNDA:25,_ZN4NodeC2ERKNSt7__cxx1112basic_stringIcSt11char_traitsIcESaIcEEEPS_S8_
FNDA:17,_ZN6NodeHTC2ERKNSt7__cxx1112basic_stringIcSt11char_traitsIcESaIcEEES7_
FNDA:39,_ZN7NodeAVLC2Ei
FNF:4
FNH:4
DA:10,39
DA:18,25
DA:19,25
DA:27,17
DA:36,39
LF:5
LH:5
end_of_record
TN:
SF:/home/vboxuser/Рабочий стол/lr3/n3/C++/containers/Queue.h
FN:14,17,_ZN5QueueC2Ev
FN:19,26,_ZN5QueueD2Ev
FN:29,29,_ZNK5Queue7getHeadEv
FN:30,30,_ZNK5Queue7getTailEv
FN:33,48,_ZN5Queue4pushENSt7__cxx1112basic_stringIcSt11char_traitsIcESaIcEEE
FN:51,66,_ZN5Queue3popEv
FNDA:4,_ZN5QueueC2Ev
FNDA:4,_ZN5QueueD2Ev
FNDA:4,_ZNK5Queue7getHeadEv
FNDA:1,_ZNK5Queue7getTailEv
FNDA:3,_ZN5Queue4pushENSt7__cxx1112basic_stringIcSt11char_traitsIcESaIcEEE
FNDA:2,_ZN5Queue3popEv
FNF:6
FNH:6
DA:14,4
DA:15,4
DA:16,4
DA:17,4
DA:19,4
DA:20,10
DA:21,2
DA:22,2
DA:23,2
DA:25,4
DA:26,4
DA:29,4
DA:30,1
DA:33,3
DA:35,3
DA:38,3
DA:40,2
DA:41,2
DA:45,1
DA:46,1
DA:48,3
DA:51,2
DA:53,2
DA:54,1
DA:57,1
DA:58,1
DA:59,1
DA:62,1
DA:63,0
DA:66,2
LF:30
LH:29
end_of_record
TN:
SF:/home/vboxuser/Рабочий стол/lr3/n3/C++/containers/Stack.h
FN:13,15,_ZN5StackC2Ev
FN:17,23,_ZN5StackD2Ev
FN:26,26,_ZNK5Stack6getTopEv
FN:29,34,_ZN5Stack4pushENSt7__cxx1112basic_stringIcSt11char_traitsIcESaIcEEE
FN:37,49,_ZN5Stack3popEv
FN:52,67,_ZN5Stack7displayEv
FNDA:9,_ZN5StackC2Ev
FNDA:9,_ZN5StackD2Ev
FNDA:7,_ZNK5Stack6getTopEv
FNDA:12,_ZN5Stack4pushENSt7__cxx1112basic_stringIcSt11char_traitsIcESaIcEEE
FNDA:2,_ZN5Stack3popEv
FNDA:2,_ZN5Stack7displayEv
FNF:6
FNH:6
DA:13,9
DA:14,9
DA:15,9
DA:17,9
DA:18,29
DA:19,11
DA:20,11
DA:21,11
DA:23,9
DA:26,7
DA:29,12
DA:31,12
DA:32,12
DA:33,12
DA:34,12
DA:37,2
DA:39,2
DA:40,1
DA:42,1
DA:45,1
DA:47,1
DA:49,2
DA:52,2
DA:54,2
DA:55,1
DA:57,1
DA:60,4
DA:61,3
DA:63,3
DA:65,1
DA:67,2
LF:31
LH:31
end_of_record
TN:
SF:/home/vboxuser/Рабочий стол/lr3/n3/C++/tests/array_test.cpp
FN:107,115,_ZN26ArrayTest_DisplayTest_Test8TestBodyEv
FN:107,115,_ZN26ArrayTest_DisplayTest_TestC2Ev
FN:107,115,_ZN26ArrayTest_DisplayTest_TestD0Ev
FN:107,115,_ZN26ArrayTest_DisplayTest_TestD2Ev
FN:118,125,_ZN29ArrayTest_DestructorTest_Test8TestBodyEv
FN:118,125,_ZN29ArrayTest_DestructorTest_TestC2Ev
FN:118,125,_ZN29ArrayTest_DestructorTest_TestD0Ev
FN:118,125,_ZN29ArrayTest_DestructorTest_TestD2Ev
FN:14,14,_ZN29ArrayTest_EmptyArrayTest_Test8TestBodyEv
FN:14,14,_ZN29ArrayTest_EmptyArrayTest_TestC2Ev
FN:14,14,_ZN29ArrayTest_EmptyArrayTest_TestD0Ev
FN:14,14,_ZN29ArrayTest_EmptyArrayTest_TestD2Ev
FN:23,23,_ZN26ArrayTest_PushEndTest_Test8TestBodyEv
FN:23,23,_ZN26ArrayTest_PushEndTest_TestC2Ev
FN:23,23,_ZN26ArrayTest_PushEndTest_TestD0Ev
FN:23,23,_ZN26ArrayTest_PushEndTest_TestD2Ev
FN:30,30,_ZN34ArrayTest_PushEndOverflowTest_Test8TestBodyEv
FN:30,30,_ZN34ArrayTest_PushEndOverflowTest_TestC2Ev
FN:30,30,_ZN34ArrayTest_PushEndOverflowTest_TestD0Ev
FN:30,30,_ZN34ArrayTest_PushEndOverflowTest_TestD2Ev
FN:41,41,_ZN23ArrayTest_PushTest_Test8TestBodyEv
FN:41,41,_ZN23ArrayTest_PushTest_TestC2Ev
FN:41,41,_ZN23ArrayTest_PushTest_TestD0Ev
FN:41,41,_ZN23ArrayTest_PushTest_TestD2Ev
FN:51,51,_ZN35ArrayTest_PushInvalidIndexTest_Test8TestBodyEv
FN:51,51,_ZN35ArrayTest_PushInvalidIndexTest_TestC2Ev
FN:51,51,_ZN35ArrayTest_PushInvalidIndexTest_TestD0Ev
FN:51,51,_ZN35ArrayTest_PushInvalidIndexTest_TestD2Ev
FN:59,59,_ZN22ArrayTest_GetTest_Test8TestBodyEv
FN:59,59,_ZN22ArrayTest_GetTest_TestC2Ev
FN:59,59,_ZN22ArrayTest_GetTest_TestD0Ev
FN:59,59,_ZN22ArrayTest_GetTest_TestD2Ev
FN:65,65,_ZN34ArrayTest_GetInvalidIndexTest_Test8TestBodyEv
FN:65,65,_ZN34ArrayTest_GetInvalidIndexTest_TestC2Ev
FN:65,65,_ZN34ArrayTest_GetInvalidIndexTest_TestD0Ev
FN:65,65,_ZN34ArrayTest_GetInvalidIndexTest_TestD2Ev
FN:73,73,_ZN22ArrayTest_PopTest_Test8TestBodyEv
FN:73,73,_ZN22ArrayTest_PopTest_TestC2Ev
FN:73,73,_ZN22ArrayTest_PopTest_TestD0Ev
FN:73,73,_ZN22ArrayTest_PopTest_TestD2Ev
FN:84,84,_ZN34ArrayTest_PopInvalidIndexTest_Test8TestBodyEv
FN:84,84,_ZN34ArrayTest_PopInvalidIndexTest_TestC2Ev
FN:84,84,_ZN34ArrayTest_PopInvalidIndexTest_TestD0Ev
FN:84,84,_ZN34ArrayTest_PopInvalidIndexTest_TestD2Ev
FN:92,92,_ZN26ArrayTest_ReplaceTest_Test8TestBodyEv
FN:92,92,_ZN26ArrayTest_ReplaceTest_TestC2Ev
FN:92,92,_ZN26ArrayTest_ReplaceTest_TestD0Ev
FN:92,92,_ZN26ArrayTest_ReplaceTest_TestD2Ev
FN:99,99,_ZN38ArrayTest_ReplaceInvalidIndexTest_Test8TestBodyEv
FN:99,99,_ZN38ArrayTest_ReplaceInvalidIndexTest_TestC2Ev
FN:99,99,_ZN38ArrayTest_ReplaceInvalidIndexTest_TestD0Ev
FN:99,99,_ZN38ArrayTest_ReplaceInvalidIndexTest_TestD2Ev
FNDA:1,_ZN26ArrayTest_DisplayTest_Test8TestBodyEv
FNDA:1,_ZN26ArrayTest_DisplayTest_TestC2Ev
FNDA:1,_ZN26ArrayTest_DisplayTest_TestD0Ev
FNDA:1,_ZN26ArrayTest_DisplayTest_TestD2Ev
FNDA:1,_ZN29ArrayTest_DestructorTest_Test8TestBodyEv
FNDA:1,_ZN29ArrayTest_DestructorTest_TestC2Ev
FNDA:1,_ZN29ArrayTest_DestructorTest_TestD0Ev
FNDA:1,_ZN29ArrayTest_DestructorTest_TestD2Ev
FNDA:1,_ZN29ArrayTest_EmptyArrayTest_Test8TestBodyEv
FNDA:1,_ZN29ArrayTest_EmptyArrayTest_TestC2Ev
FNDA:1,_ZN29ArrayTest_EmptyArrayTest_TestD0Ev
FNDA:1,_ZN29ArrayTest_EmptyArrayTest_TestD2Ev
FNDA:1,_ZN26ArrayTest_PushEndTest_Test8TestBodyEv
FNDA:1,_ZN26ArrayTest_PushEndTest_TestC2Ev
FNDA:1,_ZN26ArrayTest_PushEndTest_TestD0Ev
FNDA:1,_ZN26ArrayTest_PushEndTest_TestD2Ev
FNDA:1,_ZN34ArrayTest_PushEndOverflowTest_Test8TestBodyEv
FNDA:1,_ZN34ArrayTest_PushEndOverflowTest_TestC2Ev
FNDA:1,_ZN34ArrayTest_PushEndOverflowTest_TestD0Ev
FNDA:1,_ZN34ArrayTest_PushEndOverflowTest_TestD2Ev
FNDA:1,_ZN23ArrayTest_PushTest_Test8TestBodyEv
FNDA:1,_ZN23ArrayTest_PushTest_TestC2Ev
FNDA:1,_ZN23ArrayTest_PushTest_TestD0Ev
FNDA:1,_ZN23ArrayTest_PushTest_TestD2Ev
FNDA:1,_ZN35ArrayTest_PushInvalidIndexTest_Test8TestBodyEv
FNDA:1,_ZN35ArrayTest_PushInvalidIndexTest_TestC2Ev
FNDA:1,_ZN35ArrayTest_PushInvalidIndexTest_TestD0Ev
FNDA:1,_ZN35ArrayTest_PushInvalidIndexTest_TestD2Ev
FNDA:1,_ZN22ArrayTest_GetTest_Test8TestBodyEv
FNDA:1,_ZN22ArrayTest_GetTest_TestC2Ev
FNDA:1,_ZN22ArrayTest_GetTest_TestD0Ev
FNDA:1,_ZN22ArrayTest_GetTest_TestD2Ev
FNDA:1,_ZN34ArrayTest_GetInvalidIndexTest_Test8TestBodyEv
FNDA:1,_ZN34ArrayTest_GetInvalidIndexTest_TestC2Ev
FNDA:1,_ZN34ArrayTest_GetInvalidIndexTest_TestD0Ev
FNDA:1,_ZN34ArrayTest_GetInvalidIndexTest_TestD2Ev
FNDA:1,_ZN22ArrayTest_PopTest_Test8TestBodyEv
FNDA:1,_ZN22ArrayTest_PopTest_TestC2Ev
FNDA:1,_ZN22ArrayTest_PopTest_TestD0Ev
FNDA:1,_ZN22ArrayTest_PopTest_TestD2Ev
FNDA:1,_ZN34ArrayTest_PopInvalidIndexTest_Test8TestBodyEv
FNDA:1,_ZN34ArrayTest_PopInvalidIndexTest_TestC2Ev
FNDA:1,_ZN34ArrayTest_PopInvalidIndexTest_TestD0Ev
FNDA:1,_ZN34ArrayTest_PopInvalidIndexTest_TestD2Ev
FNDA:1,_ZN26ArrayTest_ReplaceTest_Test8TestBodyEv
FNDA:1,_ZN26ArrayTest_ReplaceTest_TestC2Ev
FNDA:1,_ZN26ArrayTest_ReplaceTest_TestD0Ev
FNDA:1,_ZN26ArrayTest_ReplaceTest_TestD2Ev
FNDA:1,_ZN38ArrayTest_ReplaceInvalidIndexTest_Test8TestBodyEv
FNDA:1,_ZN38ArrayTest_ReplaceInvalidIndexTest_TestC2Ev
FNDA:1,_ZN38ArrayTest_ReplaceInvalidIndexTest_TestD0Ev
FNDA:1,_ZN38ArrayTest_ReplaceInvalidIndexTest_TestD2Ev
FNF:52
FNH:52
DA:14,4
DA:15,1
DA:16,1
DA:17,1
DA:18,2
DA:19,1
DA:20,1
DA:23,4
DA:24,2
DA:25,1
DA:26,1
DA:27,1
DA:30,4
DA:31,11
DA:32,10
DA:34,1
DA:35,2
DA:36,1
DA:37,1
DA:38,1
DA:41,4
DA:42,2
DA:43,2
DA:44,2
DA:45,1
DA:46,1
DA:47,1
DA:48,1
DA:51,4
DA:52,1
DA:53,2
DA:54,1
DA:55,1
DA:56,1
DA:59,4
DA:60,2
DA:61,1
DA:62,1
DA:65,4
DA:66,1
DA:67,1
DA:68,1
DA:69,1
DA:70,1
DA:73,4
DA:74,2
DA:75,2
DA:76,2
DA:77,1
DA:78,1
DA:79,1
DA:80,1
DA:81,1
DA:84,4
DA:85,1
DA:86,1
DA:87,1
DA:88,1
DA:89,1
DA:92,4
DA:93,2
DA:94,2
DA:95,1
DA:96,1
DA:99,4
DA:100,1
DA:101,2
DA:102,1
DA:103,1
DA:104,1
DA:107,4
DA:108,2
DA:109,2
DA:110,2
DA:111,1
DA:112,1
DA:113,1
DA:114,1
DA:115,1
DA:118,4
DA:119,1
DA:120,2
DA:121,2
DA:122,2
DA:123,1
DA:124,1
DA:125,1
LF:87
LH:87
end_of_record
TN:
SF:/home/vboxuser/Рабочий стол/lr3/n3/C++/tests/avl_test.cpp
FN:102,102,_ZN39AVLTest_DeleteNodeWithOneChildTest_Test8TestBodyEv
FN:102,102,_ZN39AVLTest_DeleteNodeWithOneChildTest_TestC2Ev
FN:102,102,_ZN39AVLTest_DeleteNodeWithOneChildTest_TestD0Ev
FN:102,102,_ZN39AVLTest_DeleteNodeWithOneChildTest_TestD2Ev
FN:114,114,_ZN42AVLTest_DeleteNodeWithTwoChildrenTest_Test8TestBodyEv
FN:114,114,_ZN42AVLTest_DeleteNodeWithTwoChildrenTest_TestC2Ev
FN:114,114,_ZN42AVLTest_DeleteNodeWithTwoChildrenTest_TestD0Ev
FN:114,114,_ZN42AVLTest_DeleteNodeWithTwoChildrenTest_TestD2Ev
FN:128,136,_ZN24AVLTest_DisplayTest_Test8TestBodyEv
FN:128,136,_ZN24AVLTest_DisplayTest_TestC2Ev
FN:128,136,_ZN24AVLTest_DisplayTest_TestD0Ev
FN:128,136,_ZN24AVLTest_DisplayTest_TestD2Ev
FN:13,13,_ZN26AVLTest_EmptyTreeTest_Test8TestBodyEv
FN:13,13,_ZN26AVLTest_EmptyTreeTest_TestC2Ev
FN:13,13,_ZN26AVLTest_EmptyTreeTest_TestD0Ev
FN:13,13,_ZN26AVLTest_EmptyTreeTest_TestD2Ev
FN:139,148,_ZN27AVLTest_MemoryLeakTest_Test8TestBodyEv
FN:139,148,_ZN27AVLTest_MemoryLeakTest_TestC2Ev
FN:139,148,_ZN27AVLTest_MemoryLeakTest_TestD0Ev
FN:139,148,_ZN27AVLTest_MemoryLeakTest_TestD2Ev
FN:22,22,_ZN29AVLTest_SingleInsertTest_Test8TestBodyEv
FN:22,22,_ZN29AVLTest_SingleInsertTest_TestC2Ev
FN:22,22,_ZN29AVLTest_SingleInsertTest_TestD0Ev
FN:22,22,_ZN29AVLTest_SingleInsertTest_TestD2Ev
FN:30,30,_ZN33AVLTest_LeftLeftRotationTest_Test8TestBodyEv
FN:30,30,_ZN33AVLTest_LeftLeftRotationTest_TestC2Ev
FN:30,30,_ZN33AVLTest_LeftLeftRotationTest_TestD0Ev
FN:30,30,_ZN33AVLTest_LeftLeftRotationTest_TestD2Ev
FN:41,41,_ZN35AVLTest_RightRightRotationTest_Test8TestBodyEv
FN:41,41,_ZN35AVLTest_RightRightRotationTest_TestC2Ev
FN:41,41,_ZN35AVLTest_RightRightRotationTest_TestD0Ev
FN:41,41,_ZN35AVLTest_RightRightRotationTest_TestD2Ev
FN:52,52,_ZN34AVLTest_LeftRightRotationTest_Test8TestBodyEv
FN:52,52,_ZN34AVLTest_LeftRightRotationTest_TestC2Ev
FN:52,52,_ZN34AVLTest_LeftRightRotationTest_TestD0Ev
FN:52,52,_ZN34AVLTest_LeftRightRotationTest_TestD2Ev
FN:63,63,_ZN34AVLTest_RightLeftRotationTest_Test8TestBodyEv
FN:63,63,_ZN34AVLTest_RightLeftRotationTest_TestC2Ev
FN:63,63,_ZN34AVLTest_RightLeftRotationTest_TestD0Ev
FN:63,63,_ZN34AVLTest_RightLeftRotationTest_TestD2Ev
FN:74,74,_ZN31AVLTest_SearchExistingTest_Test8TestBodyEv
FN:74,74,_ZN31AVLTest_SearchExistingTest_TestC2Ev
FN:74,74,_ZN31AVLTest_SearchExistingTest_TestD0Ev
FN:74,74,_ZN31AVLTest_SearchExistingTest_TestD2Ev
FN:82,82,_ZN34AVLTest_SearchNonExistingTest_Test8TestBodyEv
FN:82,82,_ZN34AVLTest_SearchNonExistingTest_TestC2Ev
FN:82,82,_ZN34AVLTest_SearchNonExistingTest_TestD0Ev
FN:82,82,_ZN34AVLTest_SearchNonExistingTest_TestD2Ev
FN:90,90,_ZN27AVLTest_DeleteLeafTest_Test8TestBodyEv
FN:90,90,_ZN27AVLTest_DeleteLeafTest_TestC2Ev
FN:90,90,_ZN27AVLTest_DeleteLeafTest_TestD0Ev
FN:90,90,_ZN27AVLTest_DeleteLeafTest_TestD2Ev
FNDA:1,_ZN39AVLTest_DeleteNodeWithOneChildTest_Test8TestBodyEv
FNDA:1,_ZN39AVLTest_DeleteNodeWithOneChildTest_TestC2Ev
FNDA:1,_ZN39AVLTest_DeleteNodeWithOneChildTest_TestD0Ev
FNDA:1,_ZN39AVLTest_DeleteNodeWithOneChildTest_TestD2Ev
FNDA:1,_ZN42AVLTest_DeleteNodeWithTwoChildrenTest_Test8TestBodyEv
FNDA:1,_ZN42AVLTest_DeleteNodeWithTwoChildrenTest_TestC2Ev
FNDA:1,_ZN42AVLTest_DeleteNodeWithTwoChildrenTest_TestD0Ev
FNDA:1,_ZN42AVLTest_DeleteNodeWithTwoChildrenTest_TestD2Ev
FNDA:1,_ZN24AVLTest_DisplayTest_Test8TestBodyEv
FNDA:1,_ZN24AVLTest_DisplayTest_TestC2Ev
FNDA:1,_ZN24AVLTest_DisplayTest_TestD0Ev
FNDA:1,_ZN24AVLTest_DisplayTest_TestD2Ev
FNDA:1,_ZN26AVLTest_EmptyTreeTest_Test8TestBodyEv
FNDA:1,_ZN26AVLTest_EmptyTreeTest_TestC2Ev
FNDA:1,_ZN26AVLTest_EmptyTreeTest_TestD0Ev
FNDA:1,_ZN26AVLTest_EmptyTreeTest_TestD2Ev
FNDA:1,_ZN27AVLTest_MemoryLeakTest_Test8TestBodyEv
FNDA:1,_ZN27AVLTest_MemoryLeakTest_TestC2Ev
FNDA:1,_ZN27AVLTest_MemoryLeakTest_TestD0Ev
FNDA:1,_ZN27AVLTest_MemoryLeakTest_TestD2Ev
FNDA:1,_ZN29AVLTest_SingleInsertTest_Test8TestBodyEv
FNDA:1,_ZN29AVLTest_SingleInsertTest_TestC2Ev
FNDA:1,_ZN29AVLTest_SingleInsertTest_TestD0Ev
FNDA:1,_ZN29AVLTest_SingleInsertTest_TestD2Ev
FNDA:1,_ZN33AVLTest_LeftLeftRotationTest_Test8TestBodyEv
FNDA:1,_ZN33AVLTest_LeftLeftRotationTest_TestC2Ev
FNDA:1,_ZN33AVLTest_LeftLeftRotationTest_TestD0Ev
FNDA:1,_ZN33AVLTest_LeftLeftRotationTest_TestD2Ev
FNDA:1,_ZN35AVLTest_RightRightRotationTest_Test8TestBodyEv
FNDA:1,_ZN35AVLTest_RightRightRotationTest_TestC2Ev
FNDA:1,_ZN35AVLTest_RightRightRotationTest_TestD0Ev
FNDA:1,_ZN35AVLTest_RightRightRotationTest_TestD2Ev
FNDA:1,_ZN34AVLTest_LeftRightRotationTest_Test8TestBodyEv
FNDA:1,_ZN34AVLTest_LeftRightRotationTest_TestC2Ev
FNDA:1,_ZN34AVLTest_LeftRightRotationTest_TestD0Ev
FNDA:1,_ZN34AVLTest_LeftRightRotationTest_TestD2Ev
FNDA:1,_ZN34AVLTest_RightLeftRotationTest_Test8TestBodyEv
FNDA:1,_ZN34AVLTest_RightLeftRotationTest_TestC2Ev
FNDA:1,_ZN34AVLTest_RightLeftRotationTest_TestD0Ev
FNDA:1,_ZN34AVLTest_RightLeftRotationTest_TestD2Ev
FNDA:1,_ZN31AVLTest_SearchExistingTest_Test8TestBodyEv
FNDA:1,_ZN31AVLTest_SearchExistingTest_TestC2Ev
FNDA:1,_ZN31AVLTest_SearchExistingTest_TestD0Ev
FNDA:1,_ZN31AVLTest_SearchExistingTest_TestD2Ev
FNDA:1,_ZN34AVLTest_SearchNonExistingTest_Test8TestBodyEv
FNDA:1,_ZN34AVLTest_SearchNonExistingTest_TestC2Ev
FNDA:1,_ZN34AVLTest_SearchNonExistingTest_TestD0Ev
FNDA:1,_ZN34AVLTest_SearchNonExistingTest_TestD2Ev
FNDA:1,_ZN27AVLTest_DeleteLeafTest_Test8TestBodyEv
FNDA:1,_ZN27AVLTest_DeleteLeafTest_TestC2Ev
FNDA:1,_ZN27AVLTest_DeleteLeafTest_TestD0Ev
FNDA:1,_ZN27AVLTest_DeleteLeafTest_TestD2Ev
FNF:52
FNH:52
DA:13,4
DA:14,1
DA:15,1
DA:16,1
DA:17,2
DA:18,1
DA:19,1
DA:22,4
DA:23,1
DA:24,1
DA:25,1
DA:26,1
DA:27,1
DA:30,4
DA:31,1
DA:32,1
DA:33,1
DA:35,1
DA:36,1
DA:37,1
DA:38,1
DA:41,4
DA:42,1
DA:43,1
DA:44,1
DA:46,1
DA:47,1
DA:48,1
DA:49,1
DA:52,4
DA:53,1
DA:54,1
DA:55,1
DA:57,1
DA:58,1
DA:59,1
DA:60,1
DA:63,4
DA:64,1
DA:65,1
DA:66,1
DA:68,1
DA:69,1
DA:70,1
DA:71,1
DA:74,4
DA:75,1
DA:76,1
DA:77,1
DA:78,1
DA:79,1
DA:82,4
DA:83,1
DA:84,1
DA:85,1
DA:86,1
DA:87,1
DA:90,4
DA:91,1
DA:92,1
DA:93,1
DA:94,1
DA:95,1
DA:96,1
DA:97,1
DA:98,1
DA:99,1
DA:102,4
DA:103,1
DA:104,1
DA:105,1
DA:106,1
DA:107,1
DA:108,1
DA:109,1
DA:110,1
DA:111,1
DA:114,4
DA:115,1
DA:116,1
DA:117,1
DA:118,1
DA:119,1
DA:120,1
DA:121,1
DA:122,1
DA:123,1
DA:124,1
DA:125,1
DA:128,4
DA:129,1
DA:130,1
DA:131,1
DA:132,1
DA:133,1
DA:134,1
DA:135,1
DA:136,1
DA:139,4
DA:140,1
DA:141,1
DA:142,1
DA:143,1
DA:144,1
DA:145,1
DA:146,1
DA:147,1
DA:148,1
LF:108
LH:108
end_of_record
TN:
SF:/home/vboxuser/Рабочий стол/lr3/n3/C++/tests/duble_list_test.cpp
FN:102,107,_ZN37DubleListTest_SearchExistingTest_Test8TestBodyEv
FN:102,107,_ZN37DubleListTest_SearchExistingTest_TestC2Ev
FN:102,107,_ZN37DubleListTest_SearchExistingTest_TestD0Ev
FN:102,107,_ZN37DubleListTest_SearchExistingTest_TestD2Ev
FN:110,114,_ZN40DubleListTest_SearchNonExistingTest_Test8TestBodyEv
FN:110,114,_ZN40DubleListTest_SearchNonExistingTest_TestC2Ev
FN:110,114,_ZN40DubleListTest_SearchNonExistingTest_TestD0Ev
FN:110,114,_ZN40DubleListTest_SearchNonExistingTest_TestD2Ev
FN:117,122,_ZN35DubleListTest_DisplayEmptyTest_Test8TestBodyEv
FN:117,122,_ZN35DubleListTest_DisplayEmptyTest_TestC2Ev
FN:117,122,_ZN35DubleListTest_DisplayEmptyTest_TestD0Ev
FN:117,122,_ZN35DubleListTest_DisplayEmptyTest_TestD2Ev
FN:125,133,_ZN30DubleListTest_DisplayTest_Test8TestBodyEv
FN:125,133,_ZN30DubleListTest_DisplayTest_TestC2Ev
FN:125,133,_ZN30DubleListTest_DisplayTest_TestD0Ev
FN:125,133,_ZN30DubleListTest_DisplayTest_TestD2Ev
FN:13,13,_ZN32DubleListTest_EmptyListTest_Test8TestBodyEv
FN:13,13,_ZN32DubleListTest_EmptyListTest_TestC2Ev
FN:13,13,_ZN32DubleListTest_EmptyListTest_TestD0Ev
FN:13,13,_ZN32DubleListTest_EmptyListTest_TestD2Ev
FN:136,136,_ZN33DubleListTest_MemoryLeakTest_Test8TestBodyEv
FN:136,136,_ZN33DubleListTest_MemoryLeakTest_TestC2Ev
FN:136,136,_ZN33DubleListTest_MemoryLeakTest_TestD0Ev
FN:136,136,_ZN33DubleListTest_MemoryLeakTest_TestD2Ev
FN:23,23,_ZN31DubleListTest_PushHeadTest_Test8TestBodyEv
FN:23,23,_ZN31DubleListTest_PushHeadTest_TestC2Ev
FN:23,23,_ZN31DubleListTest_PushHeadTest_TestD0Ev
FN:23,23,_ZN31DubleListTest_PushHeadTest_TestD2Ev
FN:31,31,_ZN31DubleListTest_PushTailTest_Test8TestBodyEv
FN:31,31,_ZN31DubleListTest_PushTailTest_TestC2Ev
FN:31,31,_ZN31DubleListTest_PushTailTest_TestD0Ev
FN:31,31,_ZN31DubleListTest_PushTailTest_TestD2Ev
FN:39,39,_ZN35DubleListTest_MultiplePushTest_Test8TestBodyEv
FN:39,39,_ZN35DubleListTest_MultiplePushTest_TestC2Ev
FN:39,39,_ZN35DubleListTest_MultiplePushTest_TestD0Ev
FN:39,39,_ZN35DubleListTest_MultiplePushTest_TestD2Ev
FN:49,49,_ZN30DubleListTest_PopHeadTest_Test8TestBodyEv
FN:49,49,_ZN30DubleListTest_PopHeadTest_TestC2Ev
FN:49,49,_ZN30DubleListTest_PopHeadTest_TestD0Ev
FN:49,49,_ZN30DubleListTest_PopHeadTest_TestD2Ev
FN:58,58,_ZN35DubleListTest_EmptyPopHeadTest_Test8TestBodyEv
FN:58,58,_ZN35DubleListTest_EmptyPopHeadTest_TestC2Ev
FN:58,58,_ZN35DubleListTest_EmptyPopHeadTest_TestD0Ev
FN:58,58,_ZN35DubleListTest_EmptyPopHeadTest_TestD2Ev
FN:66,66,_ZN30DubleListTest_PopTailTest_Test8TestBodyEv
FN:66,66,_ZN30DubleListTest_PopTailTest_TestC2Ev
FN:66,66,_ZN30DubleListTest_PopTailTest_TestD0Ev
FN:66,66,_ZN30DubleListTest_PopTailTest_TestD2Ev
FN:75,75,_ZN35DubleListTest_EmptyPopTailTest_Test8TestBodyEv
FN:75,75,_ZN35DubleListTest_EmptyPopTailTest_TestC2Ev
FN:75,75,_ZN35DubleListTest_EmptyPopTailTest_TestD0Ev
FN:75,75,_ZN35DubleListTest_EmptyPopTailTest_TestD2Ev
FN:83,83,_ZN31DubleListTest_PopValueTest_Test8TestBodyEv
FN:83,83,_ZN31DubleListTest_PopValueTest_TestC2Ev
FN:83,83,_ZN31DubleListTest_PopValueTest_TestD0Ev
FN:83,83,_ZN31DubleListTest_PopValueTest_TestD2Ev
FN:92,92,_ZN39DubleListTest_PopValueNotFoundTest_Test8TestBodyEv
FN:92,92,_ZN39DubleListTest_PopValueNotFoundTest_TestC2Ev
FN:92,92,_ZN39DubleListTest_PopValueNotFoundTest_TestD0Ev
FN:92,92,_ZN39DubleListTest_PopValueNotFoundTest_TestD2Ev
FNDA:1,_ZN37DubleListTest_SearchExistingTest_Test8TestBodyEv
FNDA:1,_ZN37DubleListTest_SearchExistingTest_TestC2Ev
FNDA:1,_ZN37DubleListTest_SearchExistingTest_TestD0Ev
FNDA:1,_ZN37DubleListTest_SearchExistingTest_TestD2Ev
FNDA:1,_ZN40DubleListTest_SearchNonExistingTest_Test8TestBodyEv
FNDA:1,_ZN40DubleListTest_SearchNonExistingTest_TestC2Ev
FNDA:1,_ZN40DubleListTest_SearchNonExistingTest_TestD0Ev
FNDA:1,_ZN40DubleListTest_SearchNonExistingTest_TestD2Ev
FNDA:1,_ZN35DubleListTest_DisplayEmptyTest_Test8TestBodyEv
FNDA:1,_ZN35DubleListTest_DisplayEmptyTest_TestC2Ev
FNDA:1,_ZN35DubleListTest_DisplayEmptyTest_TestD0Ev
FNDA:1,_ZN35DubleListTest_DisplayEmptyTest_TestD2Ev
FNDA:1,_ZN30DubleListTest_DisplayTest_Test8TestBodyEv
FNDA:1,_ZN30DubleListTest_DisplayTest_TestC2Ev
FNDA:1,_ZN30DubleListTest_DisplayTest_TestD0Ev
FNDA:1,_ZN30DubleListTest_DisplayTest_TestD2Ev
FNDA:1,_ZN32DubleListTest_EmptyListTest_Test8TestBodyEv
FNDA:1,_ZN32DubleListTest_EmptyListTest_TestC2Ev
FNDA:1,_ZN32DubleListTest_EmptyListTest_TestD0Ev
FNDA:1,_ZN32DubleListTest_EmptyListTest_TestD2Ev
FNDA:1,_ZN33DubleListTest_MemoryLeakTest_Test8TestBodyEv
FNDA:1,_ZN33DubleListTest_MemoryLeakTest_TestC2Ev
FNDA:1,_ZN33DubleListTest_MemoryLeakTest_TestD0Ev
FNDA:1,_ZN33DubleListTest_MemoryLeakTest_TestD2Ev
FNDA:1,_ZN31DubleListTest_PushHeadTest_Test8TestBodyEv
FNDA:1,_ZN31DubleListTest_PushHeadTest_TestC2Ev
FNDA:1,_ZN31DubleListTest_PushHeadTest_TestD0Ev
FNDA:1,_ZN31DubleListTest_PushHeadTest_TestD2Ev
FNDA:1,_ZN31DubleListTest_PushTailTest_Test8TestBodyEv
FNDA:1,_ZN31DubleListTest_PushTailTest_TestC2Ev
FNDA:1,_ZN31DubleListTest_PushTailTest_TestD0Ev
FNDA:1,_ZN31DubleListTest_PushTailTest_TestD2Ev
FNDA:1,_ZN35DubleListTest_MultiplePushTest_Test8TestBodyEv
FNDA:1,_ZN35DubleListTest_MultiplePushTest_TestC2Ev
FNDA:1,_ZN35DubleListTest_MultiplePushTest_TestD0Ev
FNDA:1,_ZN35DubleListTest_MultiplePushTest_TestD2Ev
FNDA:1,_ZN30DubleListTest_PopHeadTest_Test8TestBodyEv
FNDA:1,_ZN30DubleListTest_PopHeadTest_TestC2Ev
FNDA:1,_ZN30DubleListTest_PopHeadTest_TestD0Ev
FNDA:1,_ZN30DubleListTest_PopHeadTest_TestD2Ev
FNDA:1,_ZN35DubleListTest_EmptyPopHeadTest_Test8TestBodyEv
FNDA:1,_ZN35DubleListTest_EmptyPopHeadTest_TestC2Ev
FNDA:1,_ZN35DubleListTest_EmptyPopHeadTest_TestD0Ev
FNDA:1,_ZN35DubleListTest_EmptyPopHeadTest_TestD2Ev
FNDA:1,_ZN30DubleListTest_PopTailTest_Test8TestBodyEv
FNDA:1,_ZN30DubleListTest_PopTailTest_TestC2Ev
FNDA:1,_ZN30DubleListTest_PopTailTest_TestD0Ev
FNDA:1,_ZN30DubleListTest_PopTailTest_TestD2Ev
FNDA:1,_ZN35DubleListTest_EmptyPopTailTest_Test8TestBodyEv
FNDA:1,_ZN35DubleListTest_EmptyPopTailTest_TestC2Ev
FNDA:1,_ZN35DubleListTest_EmptyPopTailTest_TestD0Ev
FNDA:1,_ZN35DubleListTest_EmptyPopTailTest_TestD2Ev
FNDA:1,_ZN31DubleListTest_PopValueTest_Test8TestBodyEv
FNDA:1,_ZN31DubleListTest_PopValueTest_TestC2Ev
FNDA:1,_ZN31DubleListTest_PopValueTest_TestD0Ev
FNDA:1,_ZN31DubleListTest_PopValueTest_TestD2Ev
FNDA:1,_ZN39DubleListTest_PopValueNotFoundTest_Test8TestBodyEv
FNDA:1,_ZN39DubleListTest_PopValueNotFoundTest_TestC2Ev
FNDA:1,_ZN39DubleListTest_PopValueNotFoundTest_TestD0Ev
FNDA:1,_ZN39DubleListTest_PopValueNotFoundTest_TestD2Ev
FNF:60
FNH:60
DA:13,4
DA:14,1
DA:15,1
DA:16,1
DA:17,1
DA:18,2
DA:19,1
DA:20,1
DA:23,4
DA:24,2
DA:25,1
DA:26,1
DA:27,1
DA:28,1
DA:31,4
DA:32,2
DA:33,1
DA:34,1
DA:35,1
DA:36,1
DA:39,4
DA:40,2
DA:41,2
DA:42,2
DA:43,1
DA:44,1
DA:45,1
DA:46,1
DA:49,4
DA:50,2
DA:51,2
DA:52,1
DA:53,1
DA:54,1
DA:55,1
DA:58,4
DA:59,1
DA:60,1
DA:61,1
DA:62,1
DA:63,1
DA:66,4
DA:67,2
DA:68,2
DA:69,1
DA:70,1
DA:71,1
DA:72,1
DA:75,4
DA:76,1
DA:77,1
DA:78,1
DA:79,1
DA:80,1
DA:83,4
DA:84,2
DA:85,2
DA:86,2
DA:87,3
DA:88,1
DA:89,1
DA:92,4
DA:93,2
DA:94,2
DA:95,1
DA:96,3
DA:97,2
DA:98,1
DA:99,1
DA:102,4
DA:103,2
DA:104,2
DA:105,2
DA:106,3
DA:107,1
DA:110,4
DA:111,2
DA:112,2
DA:113,3
DA:114,1
DA:117,4
DA:118,1
DA:119,1
DA:120,1
DA:121,1
DA:122,1
DA:125,4
DA:126,2
DA:127,2
DA:128,2
DA:129,1
DA:130,1
DA:131,1
DA:132,1
DA:133,1
DA:136,4
DA:137,1
DA:138,2
DA:139,2
DA:140,2
DA:141,1
DA:142,1
DA:143,1
LF:103
LH:103
end_of_record
TN:
SF:/home/vboxuser/Рабочий стол/lr3/n3/C++/tests/hash_table_test.cpp
FN:104,114,_ZN30HashTableTest_DisplayTest_Test8TestBodyEv
FN:104,114,_ZN30HashTableTest_DisplayTest_TestC2Ev
FN:104,114,_ZN30HashTableTest_DisplayTest_TestD0Ev
FN:104,114,_ZN30HashTableTest_DisplayTest_TestD2Ev
FN:117,124,_ZN33HashTableTest_MemoryLeakTest_Test8TestBodyEv
FN:117,124,_ZN33HashTableTest_MemoryLeakTest_TestC2Ev
FN:117,124,_ZN33HashTableTest_MemoryLeakTest_TestD0Ev
FN:117,124,_ZN33HashTableTest_MemoryLeakTest_TestD2Ev
FN:13,13,_ZN33HashTableTest_EmptyTableTest_Test8TestBodyEv
FN:13,13,_ZN33HashTableTest_EmptyTableTest_TestC2Ev
FN:13,13,_ZN33HashTableTest_EmptyTableTest_TestD0Ev
FN:13,13,_ZN33HashTableTest_EmptyTableTest_TestD2Ev
FN:21,21,_ZN35HashTableTest_SingleInsertTest_Test8TestBodyEv
FN:21,21,_ZN35HashTableTest_SingleInsertTest_TestC2Ev
FN:21,21,_ZN35HashTableTest_SingleInsertTest_TestD0Ev
FN:21,21,_ZN35HashTableTest_SingleInsertTest_TestD2Ev
FN:27,27,_ZN34HashTableTest_UpdateValueTest_Test8TestBodyEv
FN:27,27,_ZN34HashTableTest_UpdateValueTest_TestC2Ev
FN:27,27,_ZN34HashTableTest_UpdateValueTest_TestD0Ev
FN:27,27,_ZN34HashTableTest_UpdateValueTest_TestD2Ev
FN:34,34,_ZN37HashTableTest_MultipleInsertTest_Test8TestBodyEv
FN:34,34,_ZN37HashTableTest_MultipleInsertTest_TestC2Ev
FN:34,34,_ZN37HashTableTest_MultipleInsertTest_TestD0Ev
FN:34,34,_ZN37HashTableTest_MultipleInsertTest_TestD2Ev
FN:44,44,_ZN32HashTableTest_CollisionTest_Test8TestBodyEv
FN:44,44,_ZN32HashTableTest_CollisionTest_TestC2Ev
FN:44,44,_ZN32HashTableTest_CollisionTest_TestD0Ev
FN:44,44,_ZN32HashTableTest_CollisionTest_TestD2Ev
FN:54,54,_ZN40HashTableTest_GetNonExistingKeyTest_Test8TestBodyEv
FN:54,54,_ZN40HashTableTest_GetNonExistingKeyTest_TestC2Ev
FN:54,54,_ZN40HashTableTest_GetNonExistingKeyTest_TestD0Ev
FN:54,54,_ZN40HashTableTest_GetNonExistingKeyTest_TestD2Ev
FN:59,59,_ZN29HashTableTest_RemoveTest_Test8TestBodyEv
FN:59,59,_ZN29HashTableTest_RemoveTest_TestC2Ev
FN:59,59,_ZN29HashTableTest_RemoveTest_TestD0Ev
FN:59,59,_ZN29HashTableTest_RemoveTest_TestD2Ev
FN:66,66,_ZN41HashTableTest_RemoveFirstInChainTest_Test8TestBodyEv
FN:66,66,_ZN41HashTableTest_RemoveFirstInChainTest_TestC2Ev
FN:66,66,_ZN41HashTableTest_RemoveFirstInChainTest_TestD0Ev
FN:66,66,_ZN41HashTableTest_RemoveFirstInChainTest_TestD2Ev
FN:76,76,_ZN40HashTableTest_RemoveLastInChainTest_Test8TestBodyEv
FN:76,76,_ZN40HashTableTest_RemoveLastInChainTest_TestC2Ev
FN:76,76,_ZN40HashTableTest_RemoveLastInChainTest_TestD0Ev
FN:76,76,_ZN40HashTableTest_RemoveLastInChainTest_TestD2Ev
FN:86,86,_ZN43HashTableTest_RemoveNonExistingKeyTest_Test8TestBodyEv
FN:86,86,_ZN43HashTableTest_RemoveNonExistingKeyTest_TestC2Ev
FN:86,86,_ZN43HashTableTest_RemoveNonExistingKeyTest_TestD0Ev
FN:86,86,_ZN43HashTableTest_RemoveNonExistingKeyTest_TestD2Ev
FN:92,92,_ZN35HashTableTest_DisplayEmptyTest_Test8TestBodyEv
FN:92,92,_ZN35HashTableTest_DisplayEmptyTest_TestC2Ev
FN:92,92,_ZN35HashTableTest_DisplayEmptyTest_TestD0Ev
FN:92,92,_ZN35HashTableTest_DisplayEmptyTest_TestD2Ev
FNDA:1,_ZN30HashTableTest_DisplayTest_Test8TestBodyEv
FNDA:1,_ZN30HashTableTest_DisplayTest_TestC2Ev
FNDA:1,_ZN30HashTableTest_DisplayTest_TestD0Ev
FNDA:1,_ZN30HashTableTest_DisplayTest_TestD2Ev
FNDA:1,_ZN33HashTableTest_MemoryLeakTest_Test8TestBodyEv
FNDA:1,_ZN33HashTableTest_MemoryLeakTest_TestC2Ev
FNDA:1,_ZN33HashTableTest_MemoryLeakTest_TestD0Ev
FNDA:1,_ZN33HashTableTest_MemoryLeakTest_TestD2Ev
FNDA:1,_ZN33HashTableTest_EmptyTableTest_Test8TestBodyEv
FNDA:1,_ZN33HashTableTest_EmptyTableTest_TestC2Ev
FNDA:1,_ZN33HashTableTest_EmptyTableTest_TestD0Ev
FNDA:1,_ZN33HashTableTest_EmptyTableTest_TestD2Ev
FNDA:1,_ZN35HashTableTest_SingleInsertTest_Test8TestBodyEv
FNDA:1,_ZN35HashTableTest_SingleInsertTest_TestC2Ev
FNDA:1,_ZN35HashTableTest_SingleInsertTest_TestD0Ev
FNDA:1,_ZN35HashTableTest_SingleInsertTest_TestD2Ev
FNDA:1,_ZN34HashTableTest_UpdateValueTest_Test8TestBodyEv
FNDA:1,_ZN34HashTableTest_UpdateValueTest_TestC2Ev
FNDA:1,_ZN34HashTableTest_UpdateValueTest_TestD0Ev
FNDA:1,_ZN34HashTableTest_UpdateValueTest_TestD2Ev
FNDA:1,_ZN37HashTableTest_MultipleInsertTest_Test8TestBodyEv
FNDA:1,_ZN37HashTableTest_MultipleInsertTest_TestC2Ev
FNDA:1,_ZN37HashTableTest_MultipleInsertTest_TestD0Ev
FNDA:1,_ZN37HashTableTest_MultipleInsertTest_TestD2Ev
FNDA:1,_ZN32HashTableTest_CollisionTest_Test8TestBodyEv
FNDA:1,_ZN32HashTableTest_CollisionTest_TestC2Ev
FNDA:1,_ZN32HashTableTest_CollisionTest_TestD0Ev
FNDA:1,_ZN32HashTableTest_CollisionTest_TestD2Ev
FNDA:1,_ZN40HashTableTest_GetNonExistingKeyTest_Test8TestBodyEv
FNDA:1,_ZN40HashTableTest_GetNonExistingKeyTest_TestC2Ev
FNDA:1,_ZN40HashTableTest_GetNonExistingKeyTest_TestD0Ev
FNDA:1,_ZN40HashTableTest_GetNonExistingKeyTest_TestD2Ev
FNDA:1,_ZN29HashTableTest_RemoveTest_Test8TestBodyEv
FNDA:1,_ZN29HashTableTest_RemoveTest_TestC2Ev
FNDA:1,_ZN29HashTableTest_RemoveTest_TestD0Ev
FNDA:1,_ZN29HashTableTest_RemoveTest_TestD2Ev
FNDA:1,_ZN41HashTableTest_RemoveFirstInChainTest_Test8TestBodyEv
FNDA:1,_ZN41HashTableTest_RemoveFirstInChainTest_TestC2Ev
FNDA:1,_ZN41HashTableTest_RemoveFirstInChainTest_TestD0Ev
FNDA:1,_ZN41HashTableTest_RemoveFirstInChainTest_TestD2Ev
FNDA:1,_ZN40HashTableTest_RemoveLastInChainTest_Test8TestBodyEv
FNDA:1,_ZN40HashTableTest_RemoveLastInChainTest_TestC2Ev
FNDA:1,_ZN40HashTableTest_RemoveLastInChainTest_TestD0Ev
FNDA:1,_ZN40HashTableTest_RemoveLastInChainTest_TestD2Ev
FNDA:1,_ZN43HashTableTest_RemoveNonExistingKeyTest_Test8TestBodyEv
FNDA:1,_ZN43HashTableTest_RemoveNonExistingKeyTest_TestC2Ev
FNDA:1,_ZN43HashTableTest_RemoveNonExistingKeyTest_TestD0Ev
FNDA:1,_ZN43HashTableTest_RemoveNonExistingKeyTest_TestD2Ev
FNDA:1,_ZN35HashTableTest_DisplayEmptyTest_Test8TestBodyEv
FNDA:1,_ZN35HashTableTest_DisplayEmptyTest_TestC2Ev
FNDA:1,_ZN35HashTableTest_DisplayEmptyTest_TestD0Ev
FNDA:1,_ZN35HashTableTest_DisplayEmptyTest_TestD2Ev
FNF:52
FNH:52
DA:13,4
DA:14,1
DA:15,11
DA:16,10
DA:18,1
DA:21,4
DA:22,4
DA:23,3
DA:24,1
DA:27,4
DA:28,4
DA:29,4
DA:30,3
DA:31,1
DA:34,4
DA:35,4
DA:36,4
DA:37,4
DA:38,3
DA:39,3
DA:40,3
DA:41,1
DA:44,4
DA:46,1
DA:47,4
DA:48,4
DA:49,2
DA:50,2
DA:51,1
DA:54,4
DA:55,3
DA:56,1
DA:59,4
DA:60,4
DA:61,2
DA:62,3
DA:63,1
DA:66,4
DA:67,1
DA:68,4
DA:69,4
DA:70,2
DA:71,2
DA:72,2
DA:73,1
DA:76,4
DA:77,1
DA:78,4
DA:79,4
DA:80,2
DA:81,2
DA:82,2
DA:83,1
DA:86,4
DA:87,2
DA:88,4
DA:89,1
DA:92,4
DA:93,1
DA:94,1
DA:95,1
DA:96,1
DA:97,11
DA:98,10
DA:100,1
DA:101,1
DA:104,4
DA:105,4
DA:106,4
DA:107,1
DA:108,1
DA:109,1
DA:110,1
DA:111,1
DA:112,1
DA:113,1
DA:114,1
DA:117,4
DA:118,1
DA:119,4
DA:120,4
DA:121,4
DA:122,1
DA:123,1
DA:124,1
LF:85
LH:85
end_of_record
TN:
SF:/home/vboxuser/Рабочий стол/lr3/n3/C++/tests/list_test.cpp
FN:100,100,_ZN24ListTest_SearchTest_Test8TestBodyEv
FN:100,100,_ZN24ListTest_SearchTest_TestC2Ev
FN:100,100,_ZN24ListTest_SearchTest_TestD0Ev
FN:100,100,_ZN24ListTest_SearchTest_TestD2Ev
FN:109,109,_ZN30ListTest_DisplayEmptyTest_Test8TestBodyEv
FN:109,109,_ZN30ListTest_DisplayEmptyTest_TestC2Ev
FN:109,109,_ZN30ListTest_DisplayEmptyTest_TestD0Ev
FN:109,109,_ZN30ListTest_DisplayEmptyTest_TestD2Ev
FN:117,117,_ZN25ListTest_DisplayTest_Test8TestBodyEv
FN:117,117,_ZN25ListTest_DisplayTest_TestC2Ev
FN:117,117,_ZN25ListTest_DisplayTest_TestD0Ev
FN:117,117,_ZN25ListTest_DisplayTest_TestD2Ev
FN:128,135,_ZN28ListTest_DestructorTest_Test8TestBodyEv
FN:128,135,_ZN28ListTest_DestructorTest_TestC2Ev
FN:128,135,_ZN28ListTest_DestructorTest_TestD0Ev
FN:128,135,_ZN28ListTest_DestructorTest_TestD2Ev
FN:13,13,_ZN27ListTest_EmptyListTest_Test8TestBodyEv
FN:13,13,_ZN27ListTest_EmptyListTest_TestC2Ev
FN:13,13,_ZN27ListTest_EmptyListTest_TestD0Ev
FN:13,13,_ZN27ListTest_EmptyListTest_TestD2Ev
FN:19,19,_ZN26ListTest_PushHeadTest_Test8TestBodyEv
FN:19,19,_ZN26ListTest_PushHeadTest_TestC2Ev
FN:19,19,_ZN26ListTest_PushHeadTest_TestD0Ev
FN:19,19,_ZN26ListTest_PushHeadTest_TestD2Ev
FN:27,27,_ZN26ListTest_PushTailTest_Test8TestBodyEv
FN:27,27,_ZN26ListTest_PushTailTest_TestC2Ev
FN:27,27,_ZN26ListTest_PushTailTest_TestD0Ev
FN:27,27,_ZN26ListTest_PushTailTest_TestD2Ev
FN:35,35,_ZN30ListTest_MultiplePushTest_Test8TestBodyEv
FN:35,35,_ZN30ListTest_MultiplePushTest_TestC2Ev
FN:35,35,_ZN30ListTest_MultiplePushTest_TestD0Ev
FN:35,35,_ZN30ListTest_MultiplePushTest_TestD2Ev
FN:45,45,_ZN25ListTest_PopHeadTest_Test8TestBodyEv
FN:45,45,_ZN25ListTest_PopHeadTest_TestC2Ev
FN:45,45,_ZN25ListTest_PopHeadTest_TestD0Ev
FN:45,45,_ZN25ListTest_PopHeadTest_TestD2Ev
FN:54,54,_ZN30ListTest_EmptyPopHeadTest_Test8TestBodyEv
FN:54,54,_ZN30ListTest_EmptyPopHeadTest_TestC2Ev
FN:54,54,_ZN30ListTest_EmptyPopHeadTest_TestD0Ev
FN:54,54,_ZN30ListTest_EmptyPopHeadTest_TestD2Ev
FN:62,62,_ZN25ListTest_PopTailTest_Test8TestBodyEv
FN:62,62,_ZN25ListTest_PopTailTest_TestC2Ev
FN:62,62,_ZN25ListTest_PopTailTest_TestD0Ev
FN:62,62,_ZN25ListTest_PopTailTest_TestD2Ev
FN:72,72,_ZN30ListTest_EmptyPopTailTest_Test8TestBodyEv
FN:72,72,_ZN30ListTest_EmptyPopTailTest_TestC2Ev
FN:72,72,_ZN30ListTest_EmptyPopTailTest_TestD0Ev
FN:72,72,_ZN30ListTest_EmptyPopTailTest_TestD2Ev
FN:80,80,_ZN26ListTest_PopValueTest_Test8TestBodyEv
FN:80,80,_ZN26ListTest_PopValueTest_TestC2Ev
FN:80,80,_ZN26ListTest_PopValueTest_TestD0Ev
FN:80,80,_ZN26ListTest_PopValueTest_TestD2Ev
FN:90,90,_ZN34ListTest_PopValueNotFoundTest_Test8TestBodyEv
FN:90,90,_ZN34ListTest_PopValueNotFoundTest_TestC2Ev
FN:90,90,_ZN34ListTest_PopValueNotFoundTest_TestD0Ev
FN:90,90,_ZN34ListTest_PopValueNotFoundTest_TestD2Ev
FNDA:1,_ZN24ListTest_SearchTest_Test8TestBodyEv
FNDA:1,_ZN24ListTest_SearchTest_TestC2Ev
FNDA:1,_ZN24ListTest_SearchTest_TestD0Ev
FNDA:1,_ZN24ListTest_SearchTest_TestD2Ev
FNDA:1,_ZN30ListTest_DisplayEmptyTest_Test8TestBodyEv
FNDA:1,_ZN30ListTest_DisplayEmptyTest_TestC2Ev
FNDA:1,_ZN30ListTest_DisplayEmptyTest_TestD0Ev
FNDA:1,_ZN30ListTest_DisplayEmptyTest_TestD2Ev
FNDA:1,_ZN25ListTest_DisplayTest_Test8TestBodyEv
FNDA:1,_ZN25ListTest_DisplayTest_TestC2Ev
FNDA:1,_ZN25ListTest_DisplayTest_TestD0Ev
FNDA:1,_ZN25ListTest_DisplayTest_TestD2Ev
FNDA:1,_ZN28ListTest_DestructorTest_Test8TestBodyEv
FNDA:1,_ZN28ListTest_DestructorTest_TestC2Ev
FNDA:1,_ZN28ListTest_DestructorTest_TestD0Ev
FNDA:1,_ZN28ListTest_DestructorTest_TestD2Ev
FNDA:1,_ZN27ListTest_EmptyListTest_Test8TestBodyEv
FNDA:1,_ZN27ListTest_EmptyListTest_TestC2Ev
FNDA:1,_ZN27ListTest_EmptyListTest_TestD0Ev
FNDA:1,_ZN27ListTest_EmptyListTest_TestD2Ev
FNDA:1,_ZN26ListTest_PushHeadTest_Test8TestBodyEv
FNDA:1,_ZN26ListTest_PushHeadTest_TestC2Ev
FNDA:1,_ZN26ListTest_PushHeadTest_TestD0Ev
FNDA:1,_ZN26ListTest_PushHeadTest_TestD2Ev
FNDA:1,_ZN26ListTest_PushTailTest_Test8TestBodyEv
FNDA:1,_ZN26ListTest_PushTailTest_TestC2Ev
FNDA:1,_ZN26ListTest_PushTailTest_TestD0Ev
FNDA:1,_ZN26ListTest_PushTailTest_TestD2Ev
FNDA:1,_ZN30ListTest_MultiplePushTest_Test8TestBodyEv
FNDA:1,_ZN30ListTest_MultiplePushTest_TestC2Ev
FNDA:1,_ZN30ListTest_MultiplePushTest_TestD0Ev
FNDA:1,_ZN30ListTest_MultiplePushTest_TestD2Ev
FNDA:1,_ZN25ListTest_PopHeadTest_Test8TestBodyEv
FNDA:1,_ZN25ListTest_PopHeadTest_TestC2Ev
FNDA:1,_ZN25ListTest_PopHeadTest_TestD0Ev
FNDA:1,_ZN25ListTest_PopHeadTest_TestD2Ev
FNDA:1,_ZN30ListTest_EmptyPopHeadTest_Test8TestBodyEv
FNDA:1,_ZN30ListTest_EmptyPopHeadTest_TestC2Ev
FNDA:1,_ZN30ListTest_EmptyPopHeadTest_TestD0Ev
FNDA:1,_ZN30ListTest_EmptyPopHeadTest_TestD2Ev
FNDA:1,_ZN25ListTest_PopTailTest_Test8TestBodyEv
FNDA:1,_ZN25ListTest_PopTailTest_TestC2Ev
FNDA:1,_ZN25ListTest_PopTailTest_TestD0Ev
FNDA:1,_ZN25ListTest_PopTailTest_TestD2Ev
FNDA:1,_ZN30ListTest_EmptyPopTailTest_Test8TestBodyEv
FNDA:1,_ZN30ListTest_EmptyPopTailTest_TestC2Ev
FNDA:1,_ZN30ListTest_EmptyPopTailTest_TestD0Ev
FNDA:1,_ZN30ListTest_EmptyPopTailTest_TestD2Ev
FNDA:1,_ZN26ListTest_PopValueTest_Test8TestBodyEv
FNDA:1,_ZN26ListTest_PopValueTest_TestC2Ev
FNDA:1,_ZN26ListTest_PopValueTest_TestD0Ev
FNDA:1,_ZN26ListTest_PopValueTest_TestD2Ev
FNDA:1,_ZN34ListTest_PopValueNotFoundTest_Test8TestBodyEv
FNDA:1,_ZN34ListTest_PopValueNotFoundTest_TestC2Ev
FNDA:1,_ZN34ListTest_PopValueNotFoundTest_TestD0Ev
FNDA:1,_ZN34ListTest_PopValueNotFoundTest_TestD2Ev
FNF:56
FNH:56
DA:13,4
DA:14,1
DA:15,1
DA:16,1
DA:19,4
DA:20,2
DA:21,1
DA:22,1
DA:23,1
DA:24,1
DA:27,4
DA:28,2
DA:29,1
DA:30,1
DA:31,1
DA:32,1
DA:35,4
DA:36,2
DA:37,2
DA:38,2
DA:39,1
DA:40,1
DA:41,1
DA:42,1
DA:45,4
DA:46,2
DA:47,2
DA:48,1
DA:49,1
DA:50,1
DA:51,1
DA:54,4
DA:55,1
DA:56,1
DA:57,1
DA:58,1
DA:59,1
DA:62,4
DA:63,2
DA:64,2
DA:65,2
DA:66,1
DA:67,1
DA:68,1
DA:69,1
DA:72,4
DA:73,1
DA:74,1
DA:75,1
DA:76,1
DA:77,1
DA:80,4
DA:81,2
DA:82,2
DA:83,2
DA:84,3
DA:85,1
DA:86,1
DA:87,1
DA:90,4
DA:91,2
DA:92,2
DA:93,1
DA:94,3
DA:95,2
DA:96,1
DA:97,1
DA:100,4
DA:101,2
DA:102,2
DA:103,2
DA:104,3
DA:105,3
DA:106,1
DA:109,4
DA:110,1
DA:111,1
DA:112,1
DA:113,1
DA:114,1
DA:117,4
DA:118,2
DA:119,2
DA:120,2
DA:121,1
DA:122,1
DA:123,1
DA:124,1
DA:125,1
DA:128,4
DA:129,1
DA:130,2
DA:131,2
DA:132,2
DA:133,1
DA:134,1
DA:135,1
LF:97
LH:97
end_of_record
TN:
SF:/home/vboxuser/Рабочий стол/lr3/n3/C++/tests/queue_test.cpp
FN:13,13,_ZN29QueueTest_EmptyQueueTest_Test8TestBodyEv
FN:13,13,_ZN29QueueTest_EmptyQueueTest_TestC2Ev
FN:13,13,_ZN29QueueTest_EmptyQueueTest_TestD0Ev
FN:13,13,_ZN29QueueTest_EmptyQueueTest_TestD2Ev
FN:19,19,_ZN23QueueTest_PushTest_Test8TestBodyEv
FN:19,19,_ZN23QueueTest_PushTest_TestC2Ev
FN:19,19,_ZN23QueueTest_PushTest_TestD0Ev
FN:19,19,_ZN23QueueTest_PushTest_TestD2Ev
FN:26,26,_ZN22QueueTest_PopTest_Test8TestBodyEv
FN:26,26,_ZN22QueueTest_PopTest_TestC2Ev
FN:26,26,_ZN22QueueTest_PopTest_TestD0Ev
FN:26,26,_ZN22QueueTest_PopTest_TestD2Ev
FN:34,34,_ZN27QueueTest_EmptyPopTest_Test8TestBodyEv
FN:34,34,_ZN27QueueTest_EmptyPopTest_TestC2Ev
FN:34,34,_ZN27QueueTest_EmptyPopTest_TestD0Ev
FN:34,34,_ZN27QueueTest_EmptyPopTest_TestD2Ev
FNDA:1,_ZN29QueueTest_EmptyQueueTest_Test8TestBodyEv
FNDA:1,_ZN29QueueTest_EmptyQueueTest_TestC2Ev
FNDA:1,_ZN29QueueTest_EmptyQueueTest_TestD0Ev
FNDA:1,_ZN29QueueTest_EmptyQueueTest_TestD2Ev
FNDA:1,_ZN23QueueTest_PushTest_Test8TestBodyEv
FNDA:1,_ZN23QueueTest_PushTest_TestC2Ev
FNDA:1,_ZN23QueueTest_PushTest_TestD0Ev
FNDA:1,_ZN23QueueTest_PushTest_TestD2Ev
FNDA:1,_ZN22QueueTest_PopTest_Test8TestBodyEv
FNDA:1,_ZN22QueueTest_PopTest_TestC2Ev
FNDA:1,_ZN22QueueTest_PopTest_TestD0Ev
FNDA:1,_ZN22QueueTest_PopTest_TestD2Ev
FNDA:1,_ZN27QueueTest_EmptyPopTest_Test8TestBodyEv
FNDA:1,_ZN27QueueTest_EmptyPopTest_TestC2Ev
FNDA:1,_ZN27QueueTest_EmptyPopTest_TestD0Ev
FNDA:1,_ZN27QueueTest_EmptyPopTest_TestD2Ev
FNF:16
FNH:16
DA:13,4
DA:14,1
DA:15,1
DA:16,1
DA:19,4
DA:20,2
DA:21,1
DA:22,1
DA:23,1
DA:26,4
DA:27,2
DA:28,2
DA:29,1
DA:30,1
DA:31,1
DA:34,4
DA:35,1
DA:36,1
DA:37,1
DA:38,1
DA:39,1
LF:21
LH:21
end_of_record
TN:
SF:/home/vboxuser/Рабочий стол/lr3/n3/C++/tests/stack_test.cpp
FN:13,13,_ZN29StackTest_EmptyStackTest_Test8TestBodyEv
FN:13,13,_ZN29StackTest_EmptyStackTest_TestC2Ev
FN:13,13,_ZN29StackTest_EmptyStackTest_TestD0Ev
FN:13,13,_ZN29StackTest_EmptyStackTest_TestD2Ev
FN:18,18,_ZN23StackTest_PushTest_Test8TestBodyEv
FN:18,18,_ZN23StackTest_PushTest_TestC2Ev
FN:18,18,_ZN23StackTest_PushTest_TestD0Ev
FN:18,18,_ZN23StackTest_PushTest_TestD2Ev
FN:25,25,_ZN31StackTest_MultiplePushTest_Test8TestBodyEv
FN:25,25,_ZN31StackTest_MultiplePushTest_TestC2Ev
FN:25,25,_ZN31StackTest_MultiplePushTest_TestD0Ev
FN:25,25,_ZN31StackTest_MultiplePushTest_TestD2Ev
FN:34,40,_ZN22StackTest_PopTest_Test8TestBodyEv
FN:34,40,_ZN22StackTest_PopTest_TestC2Ev
FN:34,40,_ZN22StackTest_PopTest_TestD0Ev
FN:34,40,_ZN22StackTest_PopTest_TestD2Ev
FN:43,43,_ZN27StackTest_EmptyPopTest_Test8TestBodyEv
FN:43,43,_ZN27StackTest_EmptyPopTest_TestC2Ev
FN:43,43,_ZN27StackTest_EmptyPopTest_TestD0Ev
FN:43,43,_ZN27StackTest_EmptyPopTest_TestD2Ev
FN:51,51,_ZN31StackTest_DisplayEmptyTest_Test8TestBodyEv
FN:51,51,_ZN31StackTest_DisplayEmptyTest_TestC2Ev
FN:51,51,_ZN31StackTest_DisplayEmptyTest_TestD0Ev
FN:51,51,_ZN31StackTest_DisplayEmptyTest_TestD2Ev
FN:59,59,_ZN26StackTest_DisplayTest_Test8TestBodyEv
FN:59,59,_ZN26StackTest_DisplayTest_TestC2Ev
FN:59,59,_ZN26StackTest_DisplayTest_TestD0Ev
FN:59,59,_ZN26StackTest_DisplayTest_TestD2Ev
FN:70,77,_ZN29StackTest_DestructorTest_Test8TestBodyEv
FN:70,77,_ZN29StackTest_DestructorTest_TestC2Ev
FN:70,77,_ZN29StackTest_DestructorTest_TestD0Ev
FN:70,77,_ZN29StackTest_DestructorTest_TestD2Ev
FNDA:1,_ZN29StackTest_EmptyStackTest_Test8TestBodyEv
FNDA:1,_ZN29StackTest_EmptyStackTest_TestC2Ev
FNDA:1,_ZN29StackTest_EmptyStackTest_TestD0Ev
FNDA:1,_ZN29StackTest_EmptyStackTest_TestD2Ev
FNDA:1,_ZN23StackTest_PushTest_Test8TestBodyEv
FNDA:1,_ZN23StackTest_PushTest_TestC2Ev
FNDA:1,_ZN23StackTest_PushTest_TestD0Ev
FNDA:1,_ZN23StackTest_PushTest_TestD2Ev
FNDA:1,_ZN31StackTest_MultiplePushTest_Test8TestBodyEv
FNDA:1,_ZN31StackTest_MultiplePushTest_TestC2Ev
FNDA:1,_ZN31StackTest_MultiplePushTest_TestD0Ev
FNDA:1,_ZN31StackTest_MultiplePushTest_TestD2Ev
FNDA:1,_ZN22StackTest_PopTest_Test8TestBodyEv
FNDA:1,_ZN22StackTest_PopTest_TestC2Ev
FNDA:1,_ZN22StackTest_PopTest_TestD0Ev
FNDA:1,_ZN22StackTest_PopTest_TestD2Ev
FNDA:1,_ZN27StackTest_EmptyPopTest_Test8TestBodyEv
FNDA:1,_ZN27StackTest_EmptyPopTest_TestC2Ev
FNDA:1,_ZN27StackTest_EmptyPopTest_TestD0Ev
FNDA:1,_ZN27StackTest_EmptyPopTest_TestD2Ev
FNDA:1,_ZN31StackTest_DisplayEmptyTest_Test8TestBodyEv
FNDA:1,_ZN31StackTest_DisplayEmptyTest_TestC2Ev
FNDA:1,_ZN31StackTest_DisplayEmptyTest_TestD0Ev
FNDA:1,_ZN31StackTest_DisplayEmptyTest_TestD2Ev
FNDA:1,_ZN26StackTest_DisplayTest_Test8TestBodyEv
FNDA:1,_ZN26StackTest_DisplayTest_TestC2Ev
FNDA:1,_ZN26StackTest_DisplayTest_TestD0Ev
FNDA:1,_ZN26StackTest_DisplayTest_TestD2Ev
FNDA:1,_ZN29StackTest_DestructorTest_Test8TestBodyEv
FNDA:1,_ZN29StackTest_DestructorTest_TestC2Ev
FNDA:1,_ZN29StackTest_DestructorTest_TestD0Ev
FNDA:1,_ZN29StackTest_DestructorTest_TestD2Ev
FNF:32
FNH:32
DA:13,4
DA:14,1
DA:15,1
DA:18,4
DA:19,2
DA:20,1
DA:21,1
DA:22,1
DA:25,4
DA:26,2
DA:27,2
DA:28,2
DA:29,1
DA:30,1
DA:31,1
DA:34,4
DA:35,2
DA:36,2
DA:37,1
DA:38,1
DA:39,1
DA:40,1
DA:43,4
DA:44,1
DA:45,1
DA:46,1
DA:47,1
DA:48,1
DA:51,4
DA:52,1
DA:53,1
DA:54,1
DA:55,1
DA:56,1
DA:59,4
DA:60,2
DA:61,2
DA:62,2
DA:63,1
DA:64,1
DA:65,1
DA:66,1
DA:67,1
DA:70,4
DA:71,1
DA:72,2
DA:73,2
DA:74,2
DA:75,1
DA:76,1
DA:77,1
LF:51
LH:51
end_of_record
TN:
SF:/home/vboxuser/Рабочий стол/lr3/n3/C++/tests/test_main.cpp
FN:3,6,main
FNDA:1,main
FNF:1
FNH:1
DA:3,1
DA:4,1
DA:5,1
LF:3
LH:3
end_of_record
